target datalayout = "e-m:e-p270:32:32-p271:32:32-p272:64:64-i64:64-i128:128-f80:128-n8:16:32:64-S128"
target triple = "x86_64-pc-linux-gnu"

%"class.Gluco2::vec.0" = type { ptr, i32, i32 }
%"struct.Gluco2::Lit" = type { i32 }
%"class.Gluco2::Solver" = type { ptr, i32, ptr, ptr, i32, i8, ptr, i64, %"class.Gluco2::vec", %"class.Gluco2::vec.0", i32, %"class.Gluco2::vec.1", %"class.Gluco2::vec.0", i32, i32, i32, double, double, double, double, i32, i32, i32, i32, i32, i32, double, double, double, double, i32, i32, i8, i8, double, ptr, i8, i64, i64, i64, i64, i64, i64, i64, i64, i64, i64, i64, i64, i64, i64, i64, i64, i64, i64, i64, i64, i64, i64, i32, i8, double, %"class.Gluco2::vec.2", double, %"class.Gluco2::OccLists", %"class.Gluco2::OccLists", %"class.Gluco2::vec.5", %"class.Gluco2::vec.5", %"class.Gluco2::vec.1", %"class.Gluco2::vec.4", %"class.Gluco2::vec.4", %"class.Gluco2::vec.0", %"class.Gluco2::vec", %"class.Gluco2::vec", %"class.Gluco2::vec.6", i32, i32, i64, %"class.Gluco2::vec.0", %"class.Gluco2::Heap", double, i8, %"class.Gluco2::vec.5", %"class.Gluco2::vec.0", %"class.Gluco2::ClauseAllocator", i32, %"class.Gluco2::bqueue", %"class.Gluco2::bqueue", float, i32, %"class.Gluco2::vec.4", %"class.Gluco2::vec.0", %"class.Gluco2::vec.0", %"class.Gluco2::vec.0", i32, double, double, i32, i64, i64, i8, i32, i32, double, double, i32, i32, %"class.Gluco2::vec", %"class.Gluco2::vec", i8, %"class.Gluco2::vec.7", %"class.Gluco2::vec.5", %"class.Gluco2::vec.0", %"class.Gluco2::vec.0", i32, i32, i32, i32, %"class.Gluco2::Heap2", %"class.Gluco2::vec", %"class.Gluco2::vec", i32, %"class.Gluco2::vec", %"class.Gluco2::vec.0" }
%"class.Gluco2::vec.2" = type { ptr, i32, i32 }
%"class.Gluco2::OccLists" = type { %"class.Gluco2::vec.3", %"class.Gluco2::vec.4", %"class.Gluco2::vec.0", %"struct.Gluco2::Solver::WatcherDeleted" }
%"class.Gluco2::vec.3" = type { ptr, i32, i32 }
%"struct.Gluco2::Solver::WatcherDeleted" = type { ptr }
%"class.Gluco2::vec.1" = type { ptr, i32, i32 }
%"class.Gluco2::vec.6" = type { ptr, i32, i32 }
%"class.Gluco2::Heap" = type { %"struct.Gluco2::Solver::VarOrderLt", %"class.Gluco2::vec", %"class.Gluco2::vec" }
%"struct.Gluco2::Solver::VarOrderLt" = type { ptr }
%"class.Gluco2::ClauseAllocator" = type { %"class.Gluco2::RegionAllocator.base", i8, [3 x i8] }
%"class.Gluco2::RegionAllocator.base" = type <{ ptr, i32, i32, i32 }>
%"class.Gluco2::bqueue" = type { %"class.Gluco2::vec.5", i32, i32, i64, i32, i32, i8, double, double }
%"class.Gluco2::vec.4" = type { ptr, i32, i32 }
%"class.Gluco2::vec.7" = type { ptr, i32, i32 }
%"class.Gluco2::vec.5" = type { ptr, i32, i32 }
%"class.Gluco2::Heap2" = type { %"struct.Gluco2::Solver::JustOrderLt2", %"class.Gluco2::vec.8", %"class.Gluco2::vec" }
%"struct.Gluco2::Solver::JustOrderLt2" = type { ptr }
%"class.Gluco2::vec.8" = type { ptr, i32, i32 }
%"class.Gluco2::vec" = type { ptr, i32, i32 }
%"struct.Gluco2::Solver::NodeData" = type { %"struct.Gluco2::Lit", %"struct.Gluco2::Lit", i32 }

; Function Attrs: mustprogress nounwind uwtable
define linkonce_odr noundef nonnull align 4 dereferenceable(4) ptr @_ZN6Gluco23vecINS_3LitEEixEi(ptr noundef nonnull align 8 dereferenceable(16) %0, i32 noundef %1) #0 comdat align 2 {
  %3 = alloca ptr, align 8
  %4 = alloca i32, align 4
  store ptr %0, ptr %3, align 8, !tbaa !19
  store i32 %1, ptr %4, align 4, !tbaa !12
  %5 = load ptr, ptr %3, align 8
  %6 = getelementptr inbounds nuw %"class.Gluco2::vec.0", ptr %5, i32 0, i32 0
  %7 = load ptr, ptr %6, align 8, !tbaa !21
  %8 = load i32, ptr %4, align 4, !tbaa !12
  %9 = sext i32 %8 to i64
  %10 = getelementptr inbounds %"struct.Gluco2::Lit", ptr %7, i64 %9
  ret ptr %10
}

; Function Attrs: mustprogress nounwind uwtable
define linkonce_odr noundef nonnull align 4 dereferenceable(12) ptr @_ZN6Gluco23vecINS_6Solver8NodeDataEEixEi(ptr noundef nonnull align 8 dereferenceable(16) %0, i32 noundef %1) #0 comdat align 2 {
  %3 = alloca ptr, align 8
  %4 = alloca i32, align 4
  store ptr %0, ptr %3, align 8, !tbaa !237
  store i32 %1, ptr %4, align 4, !tbaa !12
  %5 = load ptr, ptr %3, align 8
  %6 = getelementptr inbounds nuw %"class.Gluco2::vec.7", ptr %5, i32 0, i32 0
  %7 = load ptr, ptr %6, align 8, !tbaa !239
  %8 = load i32, ptr %4, align 4, !tbaa !12
  %9 = sext i32 %8 to i64
  %10 = getelementptr inbounds %"struct.Gluco2::Solver::NodeData", ptr %7, i64 %9
  ret ptr %10
}

; Function Attrs: inlinehint mustprogress nounwind uwtable
define linkonce_odr noundef i32 @_ZN6Gluco23varENS_3LitE(i32 %0) #4 comdat {
  %2 = alloca %"struct.Gluco2::Lit", align 4
  %3 = getelementptr inbounds nuw %"struct.Gluco2::Lit", ptr %2, i32 0, i32 0
  store i32 %0, ptr %3, align 4
  %4 = getelementptr inbounds nuw %"struct.Gluco2::Lit", ptr %2, i32 0, i32 0
  %5 = load i32, ptr %4, align 4, !tbaa !16
  %6 = ashr i32 %5, 1
  ret i32 %6
}

; Function Attrs: inlinehint mustprogress nounwind uwtable
define linkonce_odr void @_ZN6Gluco26Solver15setVarFaninLitsEiNS_3LitES1_(ptr noundef nonnull align 8 dereferenceable(1416) %0, i32 noundef %1, i32 %2, i32 %3) #4 comdat align 2 {
  %5 = alloca %"struct.Gluco2::Lit", align 4
  %6 = alloca %"struct.Gluco2::Lit", align 4
  %7 = alloca ptr, align 8
  %8 = alloca i32, align 4
  %9 = alloca i32, align 4
  %10 = alloca %"struct.Gluco2::Lit", align 4
  %11 = alloca %"struct.Gluco2::Lit", align 4
  %12 = alloca %"struct.Gluco2::Lit", align 4
  %13 = alloca %"struct.Gluco2::Lit", align 4
  %14 = alloca %"struct.Gluco2::Lit", align 4
  %15 = alloca %"struct.Gluco2::Lit", align 4
  %16 = alloca %"struct.Gluco2::Lit", align 4
  %17 = alloca %"struct.Gluco2::Lit", align 4
  %18 = alloca %"struct.Gluco2::Lit", align 4
  %19 = alloca %"struct.Gluco2::Lit", align 4
  %20 = getelementptr inbounds nuw %"struct.Gluco2::Lit", ptr %5, i32 0, i32 0
  store i32 %2, ptr %20, align 4
  %21 = getelementptr inbounds nuw %"struct.Gluco2::Lit", ptr %6, i32 0, i32 0
  store i32 %3, ptr %21, align 4
  store ptr %0, ptr %7, align 8, !tbaa !26
  store i32 %1, ptr %8, align 4, !tbaa !12
  %22 = load ptr, ptr %7, align 8
  call void @llvm.lifetime.start.p0(i64 4, ptr %9) #15
  call void @llvm.memcpy.p0.p0.i64(ptr align 4 %10, ptr align 4 %5, i64 4, i1 false), !tbaa.struct !29
  %23 = getelementptr inbounds nuw %"struct.Gluco2::Lit", ptr %10, i32 0, i32 0
  %24 = load i32, ptr %23, align 4
  %25 = call noundef i32 @_ZN6Gluco23varENS_3LitE(i32 %24)
  call void @llvm.memcpy.p0.p0.i64(ptr align 4 %11, ptr align 4 %6, i64 4, i1 false), !tbaa.struct !29
  %26 = getelementptr inbounds nuw %"struct.Gluco2::Lit", ptr %11, i32 0, i32 0
  %27 = load i32, ptr %26, align 4
  %28 = call noundef i32 @_ZN6Gluco23varENS_3LitE(i32 %27)
  %29 = icmp slt i32 %25, %28
  br i1 %29, label %30, label %34

30:                                               ; preds = %4
  call void @llvm.memcpy.p0.p0.i64(ptr align 4 %12, ptr align 4 %6, i64 4, i1 false), !tbaa.struct !29
  %31 = getelementptr inbounds nuw %"struct.Gluco2::Lit", ptr %12, i32 0, i32 0
  %32 = load i32, ptr %31, align 4
  %33 = call noundef i32 @_ZN6Gluco23varENS_3LitE(i32 %32)
  br label %38

34:                                               ; preds = %4
  call void @llvm.memcpy.p0.p0.i64(ptr align 4 %13, ptr align 4 %5, i64 4, i1 false), !tbaa.struct !29
  %35 = getelementptr inbounds nuw %"struct.Gluco2::Lit", ptr %13, i32 0, i32 0
  %36 = load i32, ptr %35, align 4
  %37 = call noundef i32 @_ZN6Gluco23varENS_3LitE(i32 %36)
  br label %38

38:                                               ; preds = %34, %30
  %39 = phi i32 [ %33, %30 ], [ %37, %34 ]
  store i32 %39, ptr %9, align 4, !tbaa !12
  %40 = load i32, ptr %8, align 4, !tbaa !12
  %41 = load i32, ptr %9, align 4, !tbaa !12
  %42 = icmp slt i32 %40, %41
  br i1 %42, label %43, label %45

43:                                               ; preds = %38
  %44 = load i32, ptr %9, align 4, !tbaa !12
  br label %47

45:                                               ; preds = %38
  %46 = load i32, ptr %8, align 4, !tbaa !12
  br label %47

47:                                               ; preds = %45, %43
  %48 = phi i32 [ %44, %43 ], [ %46, %45 ]
  %49 = add nsw i32 %48, 1
  store i32 %49, ptr %9, align 4, !tbaa !12
  %50 = getelementptr inbounds nuw %"class.Gluco2::Solver", ptr %22, i32 0, i32 110
  %51 = load i32, ptr %8, align 4, !tbaa !12
  %52 = call noundef nonnull align 4 dereferenceable(12) ptr @_ZN6Gluco23vecINS_6Solver8NodeDataEEixEi(ptr noundef nonnull align 8 dereferenceable(16) %50, i32 noundef %51)
  %53 = getelementptr inbounds nuw %"struct.Gluco2::Solver::NodeData", ptr %52, i32 0, i32 0
  call void @llvm.memcpy.p0.p0.i64(ptr align 4 %53, ptr align 4 %5, i64 4, i1 false), !tbaa.struct !29
  %54 = getelementptr inbounds nuw %"class.Gluco2::Solver", ptr %22, i32 0, i32 110
  %55 = load i32, ptr %8, align 4, !tbaa !12
  %56 = call noundef nonnull align 4 dereferenceable(12) ptr @_ZN6Gluco23vecINS_6Solver8NodeDataEEixEi(ptr noundef nonnull align 8 dereferenceable(16) %54, i32 noundef %55)
  %57 = getelementptr inbounds nuw %"struct.Gluco2::Solver::NodeData", ptr %56, i32 0, i32 1
  call void @llvm.memcpy.p0.p0.i64(ptr align 4 %57, ptr align 4 %6, i64 4, i1 false), !tbaa.struct !29
  %58 = getelementptr inbounds nuw %"class.Gluco2::Solver", ptr %22, i32 0, i32 112
  call void @llvm.memcpy.p0.p0.i64(ptr align 4 %14, ptr align 4 %5, i64 4, i1 false), !tbaa.struct !29
  %59 = getelementptr inbounds nuw %"struct.Gluco2::Lit", ptr %14, i32 0, i32 0
  %60 = load i32, ptr %59, align 4
  %61 = call noundef i32 @_ZN6Gluco23varENS_3LitE(i32 %60)
  %62 = call noundef nonnull align 4 dereferenceable(4) ptr @_ZN6Gluco23vecINS_3LitEEixEi(ptr noundef nonnull align 8 dereferenceable(16) %58, i32 noundef %61)
  %63 = getelementptr inbounds nuw %"class.Gluco2::Solver", ptr %22, i32 0, i32 113
  %64 = load i32, ptr %8, align 4, !tbaa !12
  %65 = shl i32 %64, 1
  %66 = add nsw i32 %65, 0
  %67 = call noundef nonnull align 4 dereferenceable(4) ptr @_ZN6Gluco23vecINS_3LitEEixEi(ptr noundef nonnull align 8 dereferenceable(16) %63, i32 noundef %66)
  call void @llvm.memcpy.p0.p0.i64(ptr align 4 %67, ptr align 4 %62, i64 4, i1 false), !tbaa.struct !29
  %68 = getelementptr inbounds nuw %"class.Gluco2::Solver", ptr %22, i32 0, i32 112
  call void @llvm.memcpy.p0.p0.i64(ptr align 4 %15, ptr align 4 %6, i64 4, i1 false), !tbaa.struct !29
  %69 = getelementptr inbounds nuw %"struct.Gluco2::Lit", ptr %15, i32 0, i32 0
  %70 = load i32, ptr %69, align 4
  %71 = call noundef i32 @_ZN6Gluco23varENS_3LitE(i32 %70)
  %72 = call noundef nonnull align 4 dereferenceable(4) ptr @_ZN6Gluco23vecINS_3LitEEixEi(ptr noundef nonnull align 8 dereferenceable(16) %68, i32 noundef %71)
  %73 = getelementptr inbounds nuw %"class.Gluco2::Solver", ptr %22, i32 0, i32 113
  %74 = load i32, ptr %8, align 4, !tbaa !12
  %75 = shl i32 %74, 1
  %76 = add nsw i32 %75, 1
  %77 = call noundef nonnull align 4 dereferenceable(4) ptr @_ZN6Gluco23vecINS_3LitEEixEi(ptr noundef nonnull align 8 dereferenceable(16) %73, i32 noundef %76)
  call void @llvm.memcpy.p0.p0.i64(ptr align 4 %77, ptr align 4 %72, i64 4, i1 false), !tbaa.struct !29
  call void @llvm.lifetime.start.p0(i64 4, ptr %16) #15
  %78 = load i32, ptr %8, align 4, !tbaa !12
  %79 = shl i32 %78, 1
  %80 = add nsw i32 %79, 0
  %81 = call i32 @_ZN6Gluco25toLitEi(i32 noundef %80)
  %82 = getelementptr inbounds nuw %"struct.Gluco2::Lit", ptr %16, i32 0, i32 0
  store i32 %81, ptr %82, align 4
  %83 = getelementptr inbounds nuw %"class.Gluco2::Solver", ptr %22, i32 0, i32 112
  call void @llvm.memcpy.p0.p0.i64(ptr align 4 %17, ptr align 4 %5, i64 4, i1 false), !tbaa.struct !29
  %84 = getelementptr inbounds nuw %"struct.Gluco2::Lit", ptr %17, i32 0, i32 0
  %85 = load i32, ptr %84, align 4
  %86 = call noundef i32 @_ZN6Gluco23varENS_3LitE(i32 %85)
  %87 = call noundef nonnull align 4 dereferenceable(4) ptr @_ZN6Gluco23vecINS_3LitEEixEi(ptr noundef nonnull align 8 dereferenceable(16) %83, i32 noundef %86)
  call void @llvm.memcpy.p0.p0.i64(ptr align 4 %87, ptr align 4 %16, i64 4, i1 false), !tbaa.struct !29
  call void @llvm.lifetime.end.p0(i64 4, ptr %16) #15
  call void @llvm.lifetime.start.p0(i64 4, ptr %18) #15
  %88 = load i32, ptr %8, align 4, !tbaa !12
  %89 = shl i32 %88, 1
  %90 = add nsw i32 %89, 1
  %91 = call i32 @_ZN6Gluco25toLitEi(i32 noundef %90)
  %92 = getelementptr inbounds nuw %"struct.Gluco2::Lit", ptr %18, i32 0, i32 0
  store i32 %91, ptr %92, align 4
  %93 = getelementptr inbounds nuw %"class.Gluco2::Solver", ptr %22, i32 0, i32 112
  call void @llvm.memcpy.p0.p0.i64(ptr align 4 %19, ptr align 4 %6, i64 4, i1 false), !tbaa.struct !29
  %94 = getelementptr inbounds nuw %"struct.Gluco2::Lit", ptr %19, i32 0, i32 0
  %95 = load i32, ptr %94, align 4
  %96 = call noundef i32 @_ZN6Gluco23varENS_3LitE(i32 %95)
  %97 = call noundef nonnull align 4 dereferenceable(4) ptr @_ZN6Gluco23vecINS_3LitEEixEi(ptr noundef nonnull align 8 dereferenceable(16) %93, i32 noundef %96)
  call void @llvm.memcpy.p0.p0.i64(ptr align 4 %97, ptr align 4 %18, i64 4, i1 false), !tbaa.struct !29
  call void @llvm.lifetime.end.p0(i64 4, ptr %18) #15
  call void @llvm.lifetime.end.p0(i64 4, ptr %9) #15
  ret void
}

; Function Attrs: inlinehint mustprogress nounwind uwtable
define linkonce_odr i32 @_ZN6Gluco25toLitEi(i32 noundef %0) #4 comdat {
  %2 = alloca %"struct.Gluco2::Lit", align 4
  %3 = alloca i32, align 4
  store i32 %0, ptr %3, align 4, !tbaa !12
  %4 = load i32, ptr %3, align 4, !tbaa !12
  %5 = getelementptr inbounds nuw %"struct.Gluco2::Lit", ptr %2, i32 0, i32 0
  store i32 %4, ptr %5, align 4, !tbaa !16
  %6 = getelementptr inbounds nuw %"struct.Gluco2::Lit", ptr %2, i32 0, i32 0
  %7 = load i32, ptr %6, align 4
  ret i32 %7
}

; Function Attrs: inlinehint mustprogress nounwind uwtable
define linkonce_odr void @_ZN6Gluco26Solver28sat_solver_set_var_fanin_litEiii(ptr noundef nonnull align 8 dereferenceable(1416) %0, i32 noundef %1, i32 noundef %2, i32 noundef %3) #4 comdat align 2 {
  %5 = alloca ptr, align 8
  %6 = alloca i32, align 4
  %7 = alloca i32, align 4
  %8 = alloca i32, align 4
  %9 = alloca %"struct.Gluco2::Lit", align 4
  %10 = alloca %"struct.Gluco2::Lit", align 4
  store ptr %0, ptr %5, align 8, !tbaa !26
  store i32 %1, ptr %6, align 4, !tbaa !12
  store i32 %2, ptr %7, align 4, !tbaa !12
  store i32 %3, ptr %8, align 4, !tbaa !12
  %11 = load ptr, ptr %5, align 8
  %12 = load i32, ptr %6, align 4, !tbaa !12
  %13 = load i32, ptr %7, align 4, !tbaa !12
  %14 = call i32 @_ZN6Gluco25toLitEi(i32 noundef %13)
  %15 = getelementptr inbounds nuw %"struct.Gluco2::Lit", ptr %9, i32 0, i32 0
  store i32 %14, ptr %15, align 4
  %16 = load i32, ptr %8, align 4, !tbaa !12
  %17 = call i32 @_ZN6Gluco25toLitEi(i32 noundef %16)
  %18 = getelementptr inbounds nuw %"struct.Gluco2::Lit", ptr %10, i32 0, i32 0
  store i32 %17, ptr %18, align 4
  %19 = getelementptr inbounds nuw %"struct.Gluco2::Lit", ptr %9, i32 0, i32 0
  %20 = load i32, ptr %19, align 4
  %21 = getelementptr inbounds nuw %"struct.Gluco2::Lit", ptr %10, i32 0, i32 0
  %22 = load i32, ptr %21, align 4
  call void @_ZN6Gluco26Solver15setVarFaninLitsEiNS_3LitES1_(ptr noundef nonnull align 8 dereferenceable(1416) %11, i32 noundef %12, i32 %20, i32 %22)
  ret void
}

; Function Attrs: mustprogress nounwind uwtable
define void @bmcg2_sat_solver_set_var_fanin_lit(ptr noundef %0, i32 noundef %1, i32 noundef %2, i32 noundef %3) #0 {
  %5 = alloca ptr, align 8
  %6 = alloca i32, align 4
  %7 = alloca i32, align 4
  %8 = alloca i32, align 4
  store ptr %0, ptr %5, align 8, !tbaa !30
  store i32 %1, ptr %6, align 4, !tbaa !12
  store i32 %2, ptr %7, align 4, !tbaa !12
  store i32 %3, ptr %8, align 4, !tbaa !12
  %9 = load ptr, ptr %5, align 8, !tbaa !30
  %10 = load i32, ptr %6, align 4, !tbaa !12
  %11 = load i32, ptr %7, align 4, !tbaa !12
  %12 = load i32, ptr %8, align 4, !tbaa !12
  call void @_ZN6Gluco26Solver28sat_solver_set_var_fanin_litEiii(ptr noundef nonnull align 8 dereferenceable(1416) %9, i32 noundef %10, i32 noundef %11, i32 noundef %12)
  ret void
}