; Function Attrs: mustprogress nofree norecurse nosync nounwind willreturn memory(readwrite, inaccessiblemem: none) uwtable
define void @bmcg2_sat_solver_set_var_fanin_lit(ptr noundef readonly captures(none) %0, i32 noundef %1, i32 noundef %2, i32 noundef %3) local_unnamed_addr #9 {
  %5 = ashr i32 %2, 1
  %6 = ashr i32 %3, 1
  %7 = getelementptr inbounds nuw i8, ptr %0, i64 1224
  %8 = load ptr, ptr %7, align 8, !tbaa !67
  %9 = sext i32 %1 to i64
  %10 = getelementptr inbounds %"struct.Gluco2::Solver::NodeData", ptr %8, i64 %9
  store i32 %2, ptr %10, align 4, !tbaa !6
  %11 = getelementptr inbounds nuw i8, ptr %10, i64 4
  store i32 %3, ptr %11, align 4, !tbaa !6
  %12 = getelementptr inbounds nuw i8, ptr %0, i64 1256
  %13 = load ptr, ptr %12, align 8, !tbaa !13
  %14 = sext i32 %5 to i64
  %15 = getelementptr inbounds %"struct.Gluco2::Lit", ptr %13, i64 %14
  %16 = getelementptr inbounds nuw i8, ptr %0, i64 1272
  %17 = shl i32 %1, 1
  %18 = load ptr, ptr %16, align 8, !tbaa !13
  %19 = sext i32 %17 to i64
  %20 = getelementptr inbounds %"struct.Gluco2::Lit", ptr %18, i64 %19
  %21 = load i32, ptr %15, align 4, !tbaa !6
  store i32 %21, ptr %20, align 4, !tbaa !6
  %22 = sext i32 %6 to i64
  %23 = getelementptr inbounds %"struct.Gluco2::Lit", ptr %13, i64 %22
  %24 = or disjoint i32 %17, 1
  %25 = sext i32 %24 to i64
  %26 = getelementptr inbounds %"struct.Gluco2::Lit", ptr %18, i64 %25
  %27 = load i32, ptr %23, align 4, !tbaa !6
  store i32 %27, ptr %26, align 4, !tbaa !6
  store i32 %17, ptr %15, align 4, !tbaa !6
  store i32 %24, ptr %23, align 4, !tbaa !6
  ret void
}